; Function Attrs: nounwind uwtable
define internal range(i32 -1, 1) i32 @H5O__fill_new_shared_debug(ptr nocapture readnone %0, ptr noundef %1, ptr noundef %2, i32 noundef %3, i32 noundef %4) #0 {
  %6 = load i32, ptr %1, align 8
  %.off = add i32 %6, -1
  %switch = icmp ult i32 %.off, 2
  br i1 %switch, label %7, label %14

7:                                                ; preds = %5
  %8 = tail call i32 @H5O__shared_debug(ptr noundef nonnull %1, ptr noundef %2, i32 noundef %3, i32 noundef %4) #8
  %9 = icmp slt i32 %8, 0
  br i1 %9, label %10, label %14

10:                                               ; preds = %7
  %11 = load i64, ptr @H5E_OHDR_g, align 8
  %12 = load i64, ptr @H5E_WRITEERROR_g, align 8
  %13 = tail call i32 (ptr, ptr, i32, i64, i64, ptr, ...) @H5E_printf_stack(ptr noundef nonnull @.str.10, ptr noundef nonnull @__func__.H5O__fill_new_shared_debug, i32 noundef 428, i64 noundef %11, i64 noundef %12, ptr noundef nonnull @.str.28) #8
  br label %15

14:                                               ; preds = %5, %7
  tail call fastcc void @H5O__fill_debug(ptr noundef nonnull %1, ptr noundef %2, i32 noundef %3, i32 noundef %4)
  br label %15

15:                                               ; preds = %14, %10
  %.0 = phi i32 [ -1, %10 ], [ 0, %14 ]
  ret i32 %.0
}